target datalayout = "e-m:e-p270:32:32-p271:32:32-p272:64:64-i64:64-i128:128-f80:128-n8:16:32:64-S128"
target triple = "x86_64-pc-linux-gnu"

%struct.timespec = type { i64, i64 }

@condattr_monotonic = internal global ptr @condattr_mono, align 8
@.str.114 = private unnamed_addr constant [23 x i8] c"pthread_cond_timedwait\00", align 1

; Function Attrs: inlinehint nounwind sspstrong uwtable
define internal i64 @rb_hrtime_mul(i64 noundef %0, i64 noundef %1) #1 {
  %3 = alloca i64, align 8
  %4 = alloca i64, align 8
  %5 = alloca i64, align 8
  %6 = alloca i64, align 8
  %7 = alloca i32, align 4
  store i64 %0, ptr %4, align 8, !tbaa !22
  store i64 %1, ptr %5, align 8, !tbaa !22
  call void @llvm.lifetime.start.p0(i64 8, ptr %6) #16
  %8 = load i64, ptr %4, align 8, !tbaa !22
  %9 = load i64, ptr %5, align 8, !tbaa !22
  %10 = call { i64, i1 } @llvm.umul.with.overflow.i64(i64 %8, i64 %9)
  %11 = extractvalue { i64, i1 } %10, 1
  %12 = extractvalue { i64, i1 } %10, 0
  store i64 %12, ptr %6, align 8
  br i1 %11, label %13, label %14

13:                                               ; preds = %2
  store i64 -1, ptr %3, align 8
  store i32 1, ptr %7, align 4
  br label %16

14:                                               ; preds = %2
  %15 = load i64, ptr %6, align 8, !tbaa !22
  store i64 %15, ptr %3, align 8
  store i32 1, ptr %7, align 4
  br label %16

16:                                               ; preds = %14, %13
  call void @llvm.lifetime.end.p0(i64 8, ptr %6) #16
  %17 = load i64, ptr %3, align 8
  ret i64 %17
}

; Function Attrs: inlinehint nounwind sspstrong uwtable
define internal ptr @rb_hrtime2timespec(ptr noundef %0, ptr noundef %1) #1 {
  %3 = alloca ptr, align 8
  %4 = alloca ptr, align 8
  %5 = alloca ptr, align 8
  store ptr %0, ptr %4, align 8, !tbaa !235
  store ptr %1, ptr %5, align 8, !tbaa !24
  %6 = load ptr, ptr %5, align 8, !tbaa !24
  %7 = icmp ne ptr %6, null
  br i1 %7, label %8, label %22

8:                                                ; preds = %2
  %9 = load ptr, ptr %5, align 8, !tbaa !24
  %10 = load i64, ptr %9, align 8, !tbaa !22
  %11 = udiv i64 %10, 1000000000
  %12 = load ptr, ptr %4, align 8, !tbaa !235
  %13 = getelementptr inbounds nuw %struct.timespec, ptr %12, i32 0, i32 0
  store i64 %11, ptr %13, align 8, !tbaa !237
  %14 = load ptr, ptr %5, align 8, !tbaa !24
  %15 = load i64, ptr %14, align 8, !tbaa !22
  %16 = urem i64 %15, 1000000000
  %17 = trunc i64 %16 to i32
  %18 = sext i32 %17 to i64
  %19 = load ptr, ptr %4, align 8, !tbaa !235
  %20 = getelementptr inbounds nuw %struct.timespec, ptr %19, i32 0, i32 1
  store i64 %18, ptr %20, align 8, !tbaa !239
  %21 = load ptr, ptr %4, align 8, !tbaa !235
  store ptr %21, ptr %3, align 8
  br label %23

22:                                               ; preds = %2
  store ptr null, ptr %3, align 8
  br label %23

23:                                               ; preds = %22, %8
  %24 = load ptr, ptr %3, align 8
  ret ptr %24
}

; Function Attrs: inlinehint nounwind sspstrong uwtable
define internal i64 @rb_timespec2hrtime(ptr noundef %0) #1 {
  %2 = alloca ptr, align 8
  %3 = alloca i64, align 8
  store ptr %0, ptr %2, align 8, !tbaa !235
  call void @llvm.lifetime.start.p0(i64 8, ptr %3) #16
  %4 = load ptr, ptr %2, align 8, !tbaa !235
  %5 = getelementptr inbounds nuw %struct.timespec, ptr %4, i32 0, i32 0
  %6 = load i64, ptr %5, align 8, !tbaa !237
  %7 = call i64 @rb_hrtime_mul(i64 noundef %6, i64 noundef 1000000000)
  store i64 %7, ptr %3, align 8, !tbaa !22
  %8 = load i64, ptr %3, align 8, !tbaa !22
  %9 = load ptr, ptr %2, align 8, !tbaa !235
  %10 = getelementptr inbounds nuw %struct.timespec, ptr %9, i32 0, i32 1
  %11 = load i64, ptr %10, align 8, !tbaa !239
  %12 = call i64 @rb_hrtime_add(i64 noundef %8, i64 noundef %11)
  call void @llvm.lifetime.end.p0(i64 8, ptr %3) #16
  ret i64 %12
}

; Function Attrs: inlinehint nounwind sspstrong uwtable
define internal i64 @rb_hrtime_add(i64 noundef %0, i64 noundef %1) #1 {
  %3 = alloca i64, align 8
  %4 = alloca i64, align 8
  %5 = alloca i64, align 8
  %6 = alloca i64, align 8
  %7 = alloca i32, align 4
  store i64 %0, ptr %4, align 8, !tbaa !22
  store i64 %1, ptr %5, align 8, !tbaa !22
  call void @llvm.lifetime.start.p0(i64 8, ptr %6) #16
  %8 = load i64, ptr %4, align 8, !tbaa !22
  %9 = load i64, ptr %5, align 8, !tbaa !22
  %10 = call { i64, i1 } @llvm.uadd.with.overflow.i64(i64 %8, i64 %9)
  %11 = extractvalue { i64, i1 } %10, 1
  %12 = extractvalue { i64, i1 } %10, 0
  store i64 %12, ptr %6, align 8
  br i1 %11, label %13, label %14

13:                                               ; preds = %2
  store i64 -1, ptr %3, align 8
  store i32 1, ptr %7, align 4
  br label %16

14:                                               ; preds = %2
  %15 = load i64, ptr %6, align 8, !tbaa !22
  store i64 %15, ptr %3, align 8
  store i32 1, ptr %7, align 4
  br label %16

16:                                               ; preds = %14, %13
  call void @llvm.lifetime.end.p0(i64 8, ptr %6) #16
  %17 = load i64, ptr %3, align 8
  ret i64 %17
}

; Function Attrs: nounwind sspstrong uwtable
define internal i32 @native_cond_timedwait(ptr noundef %0, ptr noundef %1, ptr noundef %2) #0 {
  %4 = alloca ptr, align 8
  %5 = alloca ptr, align 8
  %6 = alloca ptr, align 8
  %7 = alloca i32, align 4
  %8 = alloca %struct.timespec, align 8
  store ptr %0, ptr %4, align 8, !tbaa !14
  store ptr %1, ptr %5, align 8, !tbaa !14
  store ptr %2, ptr %6, align 8, !tbaa !24
  call void @llvm.lifetime.start.p0(i64 4, ptr %7) #16
  call void @llvm.lifetime.start.p0(i64 16, ptr %8) #16
  br label %9

9:                                                ; preds = %15, %3
  %10 = load ptr, ptr %6, align 8, !tbaa !24
  %11 = call ptr @rb_hrtime2timespec(ptr noundef %8, ptr noundef %10)
  %12 = load ptr, ptr %4, align 8, !tbaa !14
  %13 = load ptr, ptr %5, align 8, !tbaa !14
  %14 = call i32 @pthread_cond_timedwait(ptr noundef %12, ptr noundef %13, ptr noundef %8)
  store i32 %14, ptr %7, align 4, !tbaa !15
  br label %15

15:                                               ; preds = %9
  %16 = load i32, ptr %7, align 4, !tbaa !15
  %17 = icmp eq i32 %16, 4
  br i1 %17, label %9, label %18, !llvm.loop !26

18:                                               ; preds = %15
  %19 = load i32, ptr %7, align 4, !tbaa !15
  %20 = icmp ne i32 %19, 0
  br i1 %20, label %21, label %26

21:                                               ; preds = %18
  %22 = load i32, ptr %7, align 4, !tbaa !15
  %23 = icmp ne i32 %22, 110
  br i1 %23, label %24, label %26

24:                                               ; preds = %21
  %25 = load i32, ptr %7, align 4, !tbaa !15
  call void @rb_bug_errno(ptr noundef @.str.114, i32 noundef %25) #35
  unreachable

26:                                               ; preds = %21, %18
  %27 = load i32, ptr %7, align 4, !tbaa !15
  call void @llvm.lifetime.end.p0(i64 16, ptr %8) #16
  call void @llvm.lifetime.end.p0(i64 4, ptr %7) #16
  ret i32 %27
}

; Function Attrs: nounwind sspstrong uwtable
define internal i64 @native_cond_timeout(ptr noundef %0, i64 noundef %1) #0 {
  %3 = alloca i64, align 8
  %4 = alloca ptr, align 8
  %5 = alloca i64, align 8
  %6 = alloca %struct.timespec, align 8
  store ptr %0, ptr %4, align 8, !tbaa !14
  store i64 %1, ptr %5, align 8, !tbaa !22
  %7 = load ptr, ptr @condattr_monotonic, align 8, !tbaa !14
  %8 = icmp ne ptr %7, null
  br i1 %8, label %9, label %13

9:                                                ; preds = %2
  %10 = call i64 @rb_hrtime_now()
  %11 = load i64, ptr %5, align 8, !tbaa !22
  %12 = call i64 @rb_hrtime_add(i64 noundef %10, i64 noundef %11)
  store i64 %12, ptr %3, align 8
  br label %17

13:                                               ; preds = %2
  call void @llvm.lifetime.start.p0(i64 16, ptr %6) #16
  call void @rb_timespec_now(ptr noundef %6)
  %14 = call i64 @rb_timespec2hrtime(ptr noundef %6)
  %15 = load i64, ptr %5, align 8, !tbaa !22
  %16 = call i64 @rb_hrtime_add(i64 noundef %14, i64 noundef %15)
  store i64 %16, ptr %3, align 8
  call void @llvm.lifetime.end.p0(i64 16, ptr %6) #16
  br label %17

17:                                               ; preds = %13, %9
  %18 = load i64, ptr %3, align 8
  ret i64 %18
}

; Function Attrs: nounwind sspstrong uwtable
define dso_local void @rb_native_cond_timedwait(ptr noundef %0, ptr noundef %1, i64 noundef %2) #0 {
  %4 = alloca ptr, align 8
  %5 = alloca ptr, align 8
  %6 = alloca i64, align 8
  %7 = alloca i64, align 8
  store ptr %0, ptr %4, align 8, !tbaa !14
  store ptr %1, ptr %5, align 8, !tbaa !14
  store i64 %2, ptr %6, align 8, !tbaa !22
  call void @llvm.lifetime.start.p0(i64 8, ptr %7) #16
  %8 = load ptr, ptr %4, align 8, !tbaa !14
  %9 = load i64, ptr %6, align 8, !tbaa !22
  %10 = mul i64 1000000, %9
  %11 = call i64 @native_cond_timeout(ptr noundef %8, i64 noundef %10)
  store i64 %11, ptr %7, align 8, !tbaa !22
  %12 = load ptr, ptr %4, align 8, !tbaa !14
  %13 = load ptr, ptr %5, align 8, !tbaa !14
  %14 = call i32 @native_cond_timedwait(ptr noundef %12, ptr noundef %13, ptr noundef %7)
  call void @llvm.lifetime.end.p0(i64 8, ptr %7) #16
  ret void
}