; Function Attrs: nounwind sspstrong uwtable
define dso_local void @rb_native_cond_timedwait(ptr noundef %0, ptr noundef %1, i64 noundef %2) local_unnamed_addr #0 {
  %4 = alloca %struct.timespec, align 8
  %5 = alloca %struct.timespec, align 8
  %6 = mul i64 %2, 1000000
  %7 = load ptr, ptr @condattr_monotonic, align 8, !tbaa !48
  %.not.i = icmp eq ptr %7, null
  br i1 %.not.i, label %10, label %8

8:                                                ; preds = %3
  %9 = tail call i64 @rb_hrtime_now()
  %.0.i.i = tail call noundef i64 @llvm.uadd.sat.i64(i64 %9, i64 %6)
  br label %native_cond_timeout.exit

10:                                               ; preds = %3
  call void @llvm.lifetime.start.p0(i64 16, ptr nonnull %5) #17
  call void @rb_timespec_now(ptr noundef nonnull %5) #17
  %.val.i = load i64, ptr %5, align 8, !tbaa !49
  %11 = getelementptr inbounds nuw i8, ptr %5, i64 8
  %.val3.i = load i64, ptr %11, align 8, !tbaa !51
  %12 = call { i64, i1 } @llvm.umul.with.overflow.i64(i64 %.val.i, i64 1000000000)
  %13 = extractvalue { i64, i1 } %12, 1
  %14 = extractvalue { i64, i1 } %12, 0
  %15 = call i64 @llvm.uadd.sat.i64(i64 %14, i64 %.val3.i)
  %16 = call i64 @llvm.uadd.sat.i64(i64 %15, i64 %6)
  %.0.i4.i = select i1 %13, i64 -1, i64 %16
  call void @llvm.lifetime.end.p0(i64 16, ptr nonnull %5) #17
  br label %native_cond_timeout.exit

native_cond_timeout.exit:                         ; preds = %8, %10
  %.0.i = phi i64 [ %.0.i.i, %8 ], [ %.0.i4.i, %10 ]
  call void @llvm.lifetime.start.p0(i64 16, ptr nonnull %4) #17
  %17 = udiv i64 %.0.i, 1000000000
  %18 = urem i64 %.0.i, 1000000000
  %19 = getelementptr inbounds nuw i8, ptr %4, i64 8
  br label %20

20:                                               ; preds = %20, %native_cond_timeout.exit
  store i64 %17, ptr %4, align 8, !tbaa !49
  store i64 %18, ptr %19, align 8, !tbaa !51
  %21 = call i32 @pthread_cond_timedwait(ptr noundef %0, ptr noundef %1, ptr noundef nonnull %4) #17
  switch i32 %21, label %22 [
    i32 4, label %20
    i32 110, label %native_cond_timedwait.exit
    i32 0, label %native_cond_timedwait.exit
  ]

22:                                               ; preds = %20
  call void @rb_bug_errno(ptr noundef nonnull @.str.114, i32 noundef %21) #38
  unreachable

native_cond_timedwait.exit:                       ; preds = %20, %20
  call void @llvm.lifetime.end.p0(i64 16, ptr nonnull %4) #17
  ret void
}